target datalayout = "e-m:e-p270:32:32-p271:32:32-p272:64:64-i64:64-i128:128-f80:128-n8:16:32:64-S128"
target triple = "x86_64-pc-linux-gnu"

@ett_bacapp_tag = internal global i32 0, align 4
@.str.2630 = private unnamed_addr constant [21 x i8] c"month (%d) not found\00", align 1
@.str.3055 = private unnamed_addr constant [7 x i8] c"Date: \00", align 1
@.str.3061 = private unnamed_addr constant [27 x i8] c"day of week (%d) not found\00", align 1
@.str.3268 = private unnamed_addr constant [13 x i8] c"Start Date: \00", align 1
@.str.3269 = private unnamed_addr constant [11 x i8] c"End Date: \00", align 1
@.str.3270 = private unnamed_addr constant [10 x i8] c"%s %s, %s\00", align 1
@.str.3271 = private unnamed_addr constant [29 x i8] c"week of month (%d) not found\00", align 1

; Function Attrs: null_pointer_is_valid sspstrong uwtable
define internal i32 @fTagHeader(ptr noundef %0, ptr noundef %1, i32 noundef %2, ptr noundef %3, ptr noundef %4, ptr noundef %5) #0 {
  %7 = alloca ptr, align 8
  %8 = alloca ptr, align 8
  %9 = alloca i32, align 4
  %10 = alloca ptr, align 8
  %11 = alloca ptr, align 8
  %12 = alloca ptr, align 8
  store ptr %0, ptr %7, align 8
  store ptr %1, ptr %8, align 8
  store i32 %2, ptr %9, align 4
  store ptr %3, ptr %10, align 8
  store ptr %4, ptr %11, align 8
  store ptr %5, ptr %12, align 8
  %13 = load ptr, ptr %7, align 8
  %14 = load ptr, ptr %8, align 8
  %15 = load i32, ptr %9, align 4
  %16 = load ptr, ptr %10, align 8
  %17 = load ptr, ptr %11, align 8
  %18 = load ptr, ptr %12, align 8
  %19 = call i32 @fTagHeaderTree(ptr noundef %13, ptr noundef %14, ptr noundef null, i32 noundef %15, ptr noundef %16, ptr noundef %17, ptr noundef %18)
  ret i32 %19
}

; Function Attrs: null_pointer_is_valid sspstrong uwtable
define internal i32 @fWeekNDay(ptr noundef %0, ptr noundef %1, ptr noundef %2, i32 noundef %3) #0 {
  %5 = alloca ptr, align 8
  %6 = alloca ptr, align 8
  %7 = alloca ptr, align 8
  %8 = alloca i32, align 4
  %9 = alloca i32, align 4
  %10 = alloca i32, align 4
  %11 = alloca i32, align 4
  %12 = alloca i8, align 1
  %13 = alloca i8, align 1
  %14 = alloca i32, align 4
  %15 = alloca i32, align 4
  %16 = alloca ptr, align 8
  store ptr %0, ptr %5, align 8
  store ptr %1, ptr %6, align 8
  store ptr %2, ptr %7, align 8
  store i32 %3, ptr %8, align 4
  call void @llvm.lifetime.start.p0(i64 4, ptr %9) #7
  call void @llvm.lifetime.start.p0(i64 4, ptr %10) #7
  call void @llvm.lifetime.start.p0(i64 4, ptr %11) #7
  call void @llvm.lifetime.start.p0(i64 1, ptr %12) #7
  call void @llvm.lifetime.start.p0(i64 1, ptr %13) #7
  call void @llvm.lifetime.start.p0(i64 4, ptr %14) #7
  call void @llvm.lifetime.start.p0(i64 4, ptr %15) #7
  call void @llvm.lifetime.start.p0(i64 8, ptr %16) #7
  %17 = load ptr, ptr %5, align 8
  %18 = load ptr, ptr %6, align 8
  %19 = load i32, ptr %8, align 4
  %20 = call i32 @fTagHeader(ptr noundef %17, ptr noundef %18, i32 noundef %19, ptr noundef %12, ptr noundef %13, ptr noundef %14)
  store i32 %20, ptr %15, align 4
  %21 = load ptr, ptr %5, align 8
  %22 = load i32, ptr %8, align 4
  %23 = load i32, ptr %15, align 4
  %24 = add i32 %22, %23
  %25 = call zeroext i8 @tvb_get_uint8(ptr noundef %21, i32 noundef %24)
  %26 = zext i8 %25 to i32
  store i32 %26, ptr %9, align 4
  %27 = load ptr, ptr %5, align 8
  %28 = load i32, ptr %8, align 4
  %29 = load i32, ptr %15, align 4
  %30 = add i32 %28, %29
  %31 = add i32 %30, 1
  %32 = call zeroext i8 @tvb_get_uint8(ptr noundef %27, i32 noundef %31)
  %33 = zext i8 %32 to i32
  store i32 %33, ptr %10, align 4
  %34 = load ptr, ptr %5, align 8
  %35 = load i32, ptr %8, align 4
  %36 = load i32, ptr %15, align 4
  %37 = add i32 %35, %36
  %38 = add i32 %37, 2
  %39 = call zeroext i8 @tvb_get_uint8(ptr noundef %34, i32 noundef %38)
  %40 = zext i8 %39 to i32
  store i32 %40, ptr %11, align 4
  %41 = load ptr, ptr %7, align 8
  %42 = load ptr, ptr %5, align 8
  %43 = load i32, ptr %8, align 4
  %44 = load i32, ptr %14, align 4
  %45 = load i32, ptr %15, align 4
  %46 = add i32 %44, %45
  %47 = load i32, ptr @ett_bacapp_tag, align 4
  %48 = load i32, ptr %9, align 4
  %49 = call ptr @val_to_str(i32 noundef %48, ptr noundef @months, ptr noundef @.str.2630)
  %50 = load i32, ptr %10, align 4
  %51 = call ptr @val_to_str(i32 noundef %50, ptr noundef @weekofmonth, ptr noundef @.str.3271)
  %52 = load i32, ptr %11, align 4
  %53 = call ptr @val_to_str(i32 noundef %52, ptr noundef @day_of_week, ptr noundef @.str.3061)
  %54 = call ptr (ptr, ptr, i32, i32, i32, ptr, ptr, ...) @proto_tree_add_subtree_format(ptr noundef %41, ptr noundef %42, i32 noundef %43, i32 noundef %46, i32 noundef %47, ptr noundef null, ptr noundef @.str.3270, ptr noundef %49, ptr noundef %51, ptr noundef %53)
  store ptr %54, ptr %16, align 8
  %55 = load ptr, ptr %5, align 8
  %56 = load ptr, ptr %6, align 8
  %57 = load ptr, ptr %16, align 8
  %58 = load i32, ptr %8, align 4
  %59 = call i32 @fTagHeaderTree(ptr noundef %55, ptr noundef %56, ptr noundef %57, i32 noundef %58, ptr noundef %12, ptr noundef %13, ptr noundef %14)
  %60 = load i32, ptr %8, align 4
  %61 = load i32, ptr %15, align 4
  %62 = add i32 %60, %61
  %63 = load i32, ptr %14, align 4
  %64 = add i32 %62, %63
  call void @llvm.lifetime.end.p0(i64 8, ptr %16) #7
  call void @llvm.lifetime.end.p0(i64 4, ptr %15) #7
  call void @llvm.lifetime.end.p0(i64 4, ptr %14) #7
  call void @llvm.lifetime.end.p0(i64 1, ptr %13) #7
  call void @llvm.lifetime.end.p0(i64 1, ptr %12) #7
  call void @llvm.lifetime.end.p0(i64 4, ptr %11) #7
  call void @llvm.lifetime.end.p0(i64 4, ptr %10) #7
  call void @llvm.lifetime.end.p0(i64 4, ptr %9) #7
  ret i32 %64
}

; Function Attrs: null_pointer_is_valid sspstrong uwtable
define internal i32 @fDateRange(ptr noundef %0, ptr noundef %1, ptr noundef %2, i32 noundef %3) #0 {
  %5 = alloca i32, align 4
  %6 = alloca ptr, align 8
  %7 = alloca ptr, align 8
  %8 = alloca ptr, align 8
  %9 = alloca i32, align 4
  store ptr %0, ptr %6, align 8
  store ptr %1, ptr %7, align 8
  store ptr %2, ptr %8, align 8
  store i32 %3, ptr %9, align 4
  %10 = load ptr, ptr %6, align 8
  %11 = load i32, ptr %9, align 4
  %12 = call i32 @tvb_reported_length_remaining(ptr noundef %10, i32 noundef %11)
  %13 = icmp sle i32 %12, 0
  br i1 %13, label %14, label %16

14:                                               ; preds = %4
  %15 = load i32, ptr %9, align 4
  store i32 %15, ptr %5, align 4
  br label %27

16:                                               ; preds = %4
  %17 = load ptr, ptr %6, align 8
  %18 = load ptr, ptr %7, align 8
  %19 = load ptr, ptr %8, align 8
  %20 = load i32, ptr %9, align 4
  %21 = call i32 @fDate(ptr noundef %17, ptr noundef %18, ptr noundef %19, i32 noundef %20, ptr noundef @.str.3268)
  store i32 %21, ptr %9, align 4
  %22 = load ptr, ptr %6, align 8
  %23 = load ptr, ptr %7, align 8
  %24 = load ptr, ptr %8, align 8
  %25 = load i32, ptr %9, align 4
  %26 = call i32 @fDate(ptr noundef %22, ptr noundef %23, ptr noundef %24, i32 noundef %25, ptr noundef @.str.3269)
  store i32 %26, ptr %5, align 4
  br label %27

27:                                               ; preds = %16, %14
  %28 = load i32, ptr %5, align 4
  ret i32 %28
}

; Function Attrs: null_pointer_is_valid sspstrong uwtable
define internal i32 @fTagNo(ptr noundef %0, i32 noundef %1) #0 {
  %3 = alloca ptr, align 8
  %4 = alloca i32, align 4
  store ptr %0, ptr %3, align 8
  store i32 %1, ptr %4, align 4
  %5 = load ptr, ptr %3, align 8
  %6 = load i32, ptr %4, align 4
  %7 = call zeroext i8 @tvb_get_uint8(ptr noundef %5, i32 noundef %6)
  %8 = zext i8 %7 to i32
  %9 = ashr i32 %8, 4
  ret i32 %9
}

; Function Attrs: null_pointer_is_valid sspstrong uwtable
define internal i32 @fCalendarEntry(ptr noundef %0, ptr noundef %1, ptr noundef %2, i32 noundef %3) #0 {
  %5 = alloca i32, align 4
  %6 = alloca ptr, align 8
  %7 = alloca ptr, align 8
  %8 = alloca ptr, align 8
  %9 = alloca i32, align 4
  %10 = alloca i8, align 1
  %11 = alloca i8, align 1
  %12 = alloca i32, align 4
  %13 = alloca i32, align 4
  store ptr %0, ptr %6, align 8
  store ptr %1, ptr %7, align 8
  store ptr %2, ptr %8, align 8
  store i32 %3, ptr %9, align 4
  call void @llvm.lifetime.start.p0(i64 1, ptr %10) #7
  call void @llvm.lifetime.start.p0(i64 1, ptr %11) #7
  call void @llvm.lifetime.start.p0(i64 4, ptr %12) #7
  %14 = load ptr, ptr %6, align 8
  %15 = load i32, ptr %9, align 4
  %16 = call i32 @fTagNo(ptr noundef %14, i32 noundef %15)
  switch i32 %16, label %49 [
    i32 0, label %17
    i32 1, label %23
    i32 2, label %43
  ]

17:                                               ; preds = %4
  %18 = load ptr, ptr %6, align 8
  %19 = load ptr, ptr %7, align 8
  %20 = load ptr, ptr %8, align 8
  %21 = load i32, ptr %9, align 4
  %22 = call i32 @fDate(ptr noundef %18, ptr noundef %19, ptr noundef %20, i32 noundef %21, ptr noundef @.str.3055)
  store i32 %22, ptr %9, align 4
  br label %51

23:                                               ; preds = %4
  %24 = load ptr, ptr %6, align 8
  %25 = load ptr, ptr %7, align 8
  %26 = load ptr, ptr %8, align 8
  %27 = load i32, ptr %9, align 4
  %28 = call i32 @fTagHeaderTree(ptr noundef %24, ptr noundef %25, ptr noundef %26, i32 noundef %27, ptr noundef %10, ptr noundef %11, ptr noundef %12)
  %29 = load i32, ptr %9, align 4
  %30 = add i32 %29, %28
  store i32 %30, ptr %9, align 4
  %31 = load ptr, ptr %6, align 8
  %32 = load ptr, ptr %7, align 8
  %33 = load ptr, ptr %8, align 8
  %34 = load i32, ptr %9, align 4
  %35 = call i32 @fDateRange(ptr noundef %31, ptr noundef %32, ptr noundef %33, i32 noundef %34)
  store i32 %35, ptr %9, align 4
  %36 = load ptr, ptr %6, align 8
  %37 = load ptr, ptr %7, align 8
  %38 = load ptr, ptr %8, align 8
  %39 = load i32, ptr %9, align 4
  %40 = call i32 @fTagHeaderTree(ptr noundef %36, ptr noundef %37, ptr noundef %38, i32 noundef %39, ptr noundef %10, ptr noundef %11, ptr noundef %12)
  %41 = load i32, ptr %9, align 4
  %42 = add i32 %41, %40
  store i32 %42, ptr %9, align 4
  br label %51

43:                                               ; preds = %4
  %44 = load ptr, ptr %6, align 8
  %45 = load ptr, ptr %7, align 8
  %46 = load ptr, ptr %8, align 8
  %47 = load i32, ptr %9, align 4
  %48 = call i32 @fWeekNDay(ptr noundef %44, ptr noundef %45, ptr noundef %46, i32 noundef %47)
  store i32 %48, ptr %9, align 4
  br label %51

49:                                               ; preds = %4
  %50 = load i32, ptr %9, align 4
  store i32 %50, ptr %5, align 4
  store i32 1, ptr %13, align 4
  br label %53

51:                                               ; preds = %43, %23, %17
  %52 = load i32, ptr %9, align 4
  store i32 %52, ptr %5, align 4
  store i32 1, ptr %13, align 4
  br label %53

53:                                               ; preds = %51, %49
  call void @llvm.lifetime.end.p0(i64 4, ptr %12) #7
  call void @llvm.lifetime.end.p0(i64 1, ptr %11) #7
  call void @llvm.lifetime.end.p0(i64 1, ptr %10) #7
  %54 = load i32, ptr %5, align 4
  ret i32 %54
}