; Function Attrs: null_pointer_is_valid sspstrong uwtable
define internal fastcc i32 @fCalendarEntry(ptr noundef nonnull %0, ptr noundef %1, ptr noundef %2, i32 noundef %3) unnamed_addr #0 {
  %5 = alloca i8, align 1
  %6 = alloca i8, align 1
  %7 = alloca i32, align 4
  %8 = alloca i8, align 1
  %9 = alloca i8, align 1
  %10 = alloca i32, align 4
  call void @llvm.lifetime.start.p0(i64 1, ptr nonnull %8) #6
  call void @llvm.lifetime.start.p0(i64 1, ptr nonnull %9) #6
  call void @llvm.lifetime.start.p0(i64 4, ptr nonnull %10) #6
  %11 = tail call zeroext i8 @tvb_get_uint8(ptr noundef nonnull %0, i32 noundef %3)
  %12 = lshr i8 %11, 4
  switch i8 %12, label %46 [
    i8 0, label %13
    i8 1, label %15
    i8 2, label %25
  ]

13:                                               ; preds = %4
  %14 = tail call fastcc i32 @fDate(ptr noundef %0, ptr noundef %1, ptr noundef %2, i32 noundef %3, ptr noundef nonnull @.str.3055)
  br label %46

15:                                               ; preds = %4
  %16 = call fastcc i32 @fTagHeaderTree(ptr noundef %0, ptr noundef %1, ptr noundef %2, i32 noundef %3, ptr noundef nonnull %8, ptr noundef nonnull %9, ptr noundef nonnull %10)
  %17 = add i32 %16, %3
  %18 = tail call i32 @tvb_reported_length_remaining(ptr noundef nonnull %0, i32 noundef %17)
  %19 = icmp slt i32 %18, 1
  br i1 %19, label %fDateRange.exit, label %20

20:                                               ; preds = %15
  %21 = tail call fastcc i32 @fDate(ptr noundef nonnull %0, ptr noundef %1, ptr noundef %2, i32 noundef %17, ptr noundef nonnull @.str.3268)
  %22 = tail call fastcc i32 @fDate(ptr noundef nonnull %0, ptr noundef %1, ptr noundef %2, i32 noundef %21, ptr noundef nonnull @.str.3269)
  br label %fDateRange.exit

fDateRange.exit:                                  ; preds = %15, %20
  %.0.i = phi i32 [ %22, %20 ], [ %17, %15 ]
  %23 = call fastcc i32 @fTagHeaderTree(ptr noundef %0, ptr noundef %1, ptr noundef %2, i32 noundef %.0.i, ptr noundef nonnull %8, ptr noundef nonnull %9, ptr noundef nonnull %10)
  %24 = add i32 %23, %.0.i
  br label %46

25:                                               ; preds = %4
  call void @llvm.lifetime.start.p0(i64 1, ptr nonnull %5) #6
  call void @llvm.lifetime.start.p0(i64 1, ptr nonnull %6) #6
  call void @llvm.lifetime.start.p0(i64 4, ptr nonnull %7) #6
  %26 = call fastcc range(i32 1, 8) i32 @fTagHeaderTree(ptr noundef nonnull %0, ptr noundef %1, ptr noundef null, i32 noundef %3, ptr noundef nonnull %5, ptr noundef nonnull %6, ptr noundef nonnull %7)
  %27 = add i32 %26, %3
  %28 = tail call zeroext i8 @tvb_get_uint8(ptr noundef nonnull %0, i32 noundef %27)
  %29 = zext i8 %28 to i32
  %30 = add i32 %27, 1
  %31 = tail call zeroext i8 @tvb_get_uint8(ptr noundef nonnull %0, i32 noundef %30)
  %32 = zext i8 %31 to i32
  %33 = add i32 %27, 2
  %34 = tail call zeroext i8 @tvb_get_uint8(ptr noundef nonnull %0, i32 noundef %33)
  %35 = zext i8 %34 to i32
  %36 = load i32, ptr %7, align 4
  %37 = add i32 %36, %26
  %38 = load i32, ptr @ett_bacapp_tag, align 4
  %39 = tail call ptr @val_to_str(i32 noundef %29, ptr noundef nonnull @months, ptr noundef nonnull @.str.2630)
  %40 = tail call ptr @val_to_str(i32 noundef %32, ptr noundef nonnull @weekofmonth, ptr noundef nonnull @.str.3271)
  %41 = tail call ptr @val_to_str(i32 noundef %35, ptr noundef nonnull @day_of_week, ptr noundef nonnull @.str.3061)
  %42 = tail call ptr (ptr, ptr, i32, i32, i32, ptr, ptr, ...) @proto_tree_add_subtree_format(ptr noundef %2, ptr noundef nonnull %0, i32 noundef %3, i32 noundef %37, i32 noundef %38, ptr noundef null, ptr noundef nonnull @.str.3270, ptr noundef %39, ptr noundef %40, ptr noundef %41)
  %43 = call fastcc i32 @fTagHeaderTree(ptr noundef nonnull %0, ptr noundef %1, ptr noundef %42, i32 noundef %3, ptr noundef nonnull %5, ptr noundef nonnull %6, ptr noundef nonnull %7)
  %44 = load i32, ptr %7, align 4
  %45 = add i32 %44, %27
  call void @llvm.lifetime.end.p0(i64 4, ptr nonnull %7) #6
  call void @llvm.lifetime.end.p0(i64 1, ptr nonnull %6) #6
  call void @llvm.lifetime.end.p0(i64 1, ptr nonnull %5) #6
  br label %46

46:                                               ; preds = %13, %fDateRange.exit, %25, %4
  %.026 = phi i32 [ %3, %4 ], [ %45, %25 ], [ %24, %fDateRange.exit ], [ %14, %13 ]
  call void @llvm.lifetime.end.p0(i64 4, ptr nonnull %10) #6
  call void @llvm.lifetime.end.p0(i64 1, ptr nonnull %9) #6
  call void @llvm.lifetime.end.p0(i64 1, ptr nonnull %8) #6
  ret i32 %.026
}